; Function Attrs: mustprogress uwtable
define noundef zeroext i1 @_ZN7rocksdb22ExtractAggFuncAndValueERKNS_5SliceERS0_S3_(ptr noundef nonnull readonly align 8 captures(none) dereferenceable(16) %0, ptr noundef nonnull writeonly align 8 captures(none) dereferenceable(16) %1, ptr noundef nonnull align 8 captures(none) dereferenceable(16) initializes((0, 16)) %2) local_unnamed_addr #4 {
  %4 = alloca i32, align 4
  tail call void @llvm.memcpy.p0.p0.i64(ptr noundef nonnull align 8 dereferenceable(16) %2, ptr noundef nonnull align 8 dereferenceable(16) %0, i64 16, i1 false), !tbaa.struct !44
  call void @llvm.lifetime.start.p0(i64 4, ptr nonnull %4) #8
  store i32 0, ptr %4, align 4, !tbaa !47
  %5 = load ptr, ptr %2, align 8, !tbaa !31
  %6 = getelementptr inbounds nuw i8, ptr %2, i64 8
  %7 = load i64, ptr %6, align 8, !tbaa !33
  %8 = getelementptr inbounds nuw i8, ptr %5, i64 %7
  %.not.i.i = icmp eq i64 %7, 0
  br i1 %.not.i.i, label %_ZN7rocksdb14GetVarint32PtrEPKcS1_Pj.exit.i.i, label %9

9:                                                ; preds = %3
  %10 = load i8, ptr %5, align 1, !tbaa !26
  %11 = icmp sgt i8 %10, -1
  br i1 %11, label %_ZN7rocksdb14GetVarint32PtrEPKcS1_Pj.exit.thread.i.i, label %_ZN7rocksdb14GetVarint32PtrEPKcS1_Pj.exit.i.i

_ZN7rocksdb14GetVarint32PtrEPKcS1_Pj.exit.thread.i.i: ; preds = %9
  %12 = zext nneg i8 %10 to i32
  %13 = getelementptr inbounds nuw i8, ptr %5, i64 1
  br label %15

_ZN7rocksdb14GetVarint32PtrEPKcS1_Pj.exit.i.i:    ; preds = %9, %3
  %14 = call noundef ptr @_ZN7rocksdb22GetVarint32PtrFallbackEPKcS1_Pj(ptr noundef %5, ptr noundef %8, ptr noundef nonnull %4)
  %.not15.i.i = icmp eq ptr %14, null
  br i1 %.not15.i.i, label %_ZN7rocksdb22GetLengthPrefixedSliceEPNS_5SliceES1_.exit, label %_ZN7rocksdb14GetVarint32PtrEPKcS1_Pj.exit.i._crit_edge.i

_ZN7rocksdb14GetVarint32PtrEPKcS1_Pj.exit.i._crit_edge.i: ; preds = %_ZN7rocksdb14GetVarint32PtrEPKcS1_Pj.exit.i.i
  %.pre.i = load i32, ptr %4, align 4, !tbaa !47
  br label %15

15:                                               ; preds = %_ZN7rocksdb14GetVarint32PtrEPKcS1_Pj.exit.i._crit_edge.i, %_ZN7rocksdb14GetVarint32PtrEPKcS1_Pj.exit.thread.i.i
  %16 = phi i32 [ %12, %_ZN7rocksdb14GetVarint32PtrEPKcS1_Pj.exit.thread.i.i ], [ %.pre.i, %_ZN7rocksdb14GetVarint32PtrEPKcS1_Pj.exit.i._crit_edge.i ]
  %17 = phi ptr [ %13, %_ZN7rocksdb14GetVarint32PtrEPKcS1_Pj.exit.thread.i.i ], [ %14, %_ZN7rocksdb14GetVarint32PtrEPKcS1_Pj.exit.i._crit_edge.i ]
  %18 = ptrtoint ptr %8 to i64
  %19 = ptrtoint ptr %17 to i64
  %20 = sub i64 %18, %19
  store ptr %17, ptr %2, align 8, !tbaa !45
  store i64 %20, ptr %6, align 8, !tbaa !46
  %21 = zext i32 %16 to i64
  %.not.i = icmp ult i64 %20, %21
  br i1 %.not.i, label %_ZN7rocksdb22GetLengthPrefixedSliceEPNS_5SliceES1_.exit, label %22

22:                                               ; preds = %15
  store ptr %17, ptr %1, align 8, !tbaa !45
  %.sroa.4.0..sroa_idx.i = getelementptr inbounds nuw i8, ptr %1, i64 8
  store i64 %21, ptr %.sroa.4.0..sroa_idx.i, align 8, !tbaa !46
  %23 = load ptr, ptr %2, align 8, !tbaa !31
  %24 = getelementptr inbounds nuw i8, ptr %23, i64 %21
  store ptr %24, ptr %2, align 8, !tbaa !31
  %25 = load i64, ptr %6, align 8, !tbaa !33
  %26 = sub i64 %25, %21
  store i64 %26, ptr %6, align 8, !tbaa !33
  br label %_ZN7rocksdb22GetLengthPrefixedSliceEPNS_5SliceES1_.exit

_ZN7rocksdb22GetLengthPrefixedSliceEPNS_5SliceES1_.exit: ; preds = %_ZN7rocksdb14GetVarint32PtrEPKcS1_Pj.exit.i.i, %15, %22
  %.0.i = phi i1 [ true, %22 ], [ false, %15 ], [ false, %_ZN7rocksdb14GetVarint32PtrEPKcS1_Pj.exit.i.i ]
  call void @llvm.lifetime.end.p0(i64 4, ptr nonnull %4) #8
  ret i1 %.0.i
}